target datalayout = "e-m:e-p270:32:32-p271:32:32-p272:64:64-i64:64-i128:128-f80:128-n8:16:32:64-S128"
target triple = "x86_64-pc-linux-gnu"

%struct.topoinfo_block = type { i32, ptr }
%struct.topoinfo_bblock = type { i8, i16, ptr, ptr, i32 }

; Function Attrs: nounwind uwtable
define dso_local i32 @topology_p_topology_pack(ptr noundef %0, ptr noundef %1, i16 noundef zeroext %2) #0 {
  %4 = alloca i32, align 4
  %5 = alloca ptr, align 8
  %6 = alloca ptr, align 8
  %7 = alloca i16, align 2
  %8 = alloca i32, align 4
  %9 = alloca ptr, align 8
  %10 = alloca i32, align 4
  %11 = alloca i32, align 4
  %12 = alloca i32, align 4
  %13 = alloca i32, align 4
  %14 = alloca i32, align 4
  store ptr %0, ptr %5, align 8
  store ptr %1, ptr %6, align 8
  store i16 %2, ptr %7, align 2
  call void @llvm.lifetime.start.p0(i64 4, ptr %8) #8
  call void @llvm.lifetime.start.p0(i64 8, ptr %9) #8
  %15 = load ptr, ptr %5, align 8
  store ptr %15, ptr %9, align 8
  %16 = load i16, ptr %7, align 2
  %17 = zext i16 %16 to i32
  %18 = icmp sge i32 %17, 10752
  br i1 %18, label %19, label %133

19:                                               ; preds = %3
  %20 = load ptr, ptr %9, align 8
  %21 = getelementptr inbounds nuw %struct.topoinfo_block, ptr %20, i32 0, i32 0
  %22 = load i32, ptr %21, align 8
  %23 = load ptr, ptr %6, align 8
  call void @slurm_pack32(i32 noundef %22, ptr noundef %23)
  store i32 0, ptr %8, align 4
  br label %24

24:                                               ; preds = %129, %19
  %25 = load i32, ptr %8, align 4
  %26 = load ptr, ptr %9, align 8
  %27 = getelementptr inbounds nuw %struct.topoinfo_block, ptr %26, i32 0, i32 0
  %28 = load i32, ptr %27, align 8
  %29 = icmp ult i32 %25, %28
  br i1 %29, label %30, label %132

30:                                               ; preds = %24
  %31 = load ptr, ptr %9, align 8
  %32 = getelementptr inbounds nuw %struct.topoinfo_block, ptr %31, i32 0, i32 1
  %33 = load ptr, ptr %32, align 8
  %34 = load i32, ptr %8, align 4
  %35 = sext i32 %34 to i64
  %36 = getelementptr inbounds %struct.topoinfo_bblock, ptr %33, i64 %35
  %37 = getelementptr inbounds nuw %struct.topoinfo_bblock, ptr %36, i32 0, i32 0
  %38 = load i8, ptr %37, align 8, !range !15, !noundef !16
  %39 = trunc i8 %38 to i1
  %40 = load ptr, ptr %6, align 8
  call void @slurm_packbool(i1 noundef zeroext %39, ptr noundef %40)
  %41 = load ptr, ptr %9, align 8
  %42 = getelementptr inbounds nuw %struct.topoinfo_block, ptr %41, i32 0, i32 1
  %43 = load ptr, ptr %42, align 8
  %44 = load i32, ptr %8, align 4
  %45 = sext i32 %44 to i64
  %46 = getelementptr inbounds %struct.topoinfo_bblock, ptr %43, i64 %45
  %47 = getelementptr inbounds nuw %struct.topoinfo_bblock, ptr %46, i32 0, i32 1
  %48 = load i16, ptr %47, align 2
  %49 = load ptr, ptr %6, align 8
  call void @slurm_pack16(i16 noundef zeroext %48, ptr noundef %49)
  br label %50

50:                                               ; preds = %30
  call void @llvm.lifetime.start.p0(i64 4, ptr %10) #8
  store i32 0, ptr %10, align 4
  %51 = load ptr, ptr %9, align 8
  %52 = getelementptr inbounds nuw %struct.topoinfo_block, ptr %51, i32 0, i32 1
  %53 = load ptr, ptr %52, align 8
  %54 = load i32, ptr %8, align 4
  %55 = sext i32 %54 to i64
  %56 = getelementptr inbounds %struct.topoinfo_bblock, ptr %53, i64 %55
  %57 = getelementptr inbounds nuw %struct.topoinfo_bblock, ptr %56, i32 0, i32 2
  %58 = load ptr, ptr %57, align 8
  %59 = icmp ne ptr %58, null
  br i1 %59, label %60, label %72

60:                                               ; preds = %50
  %61 = load ptr, ptr %9, align 8
  %62 = getelementptr inbounds nuw %struct.topoinfo_block, ptr %61, i32 0, i32 1
  %63 = load ptr, ptr %62, align 8
  %64 = load i32, ptr %8, align 4
  %65 = sext i32 %64 to i64
  %66 = getelementptr inbounds %struct.topoinfo_bblock, ptr %63, i64 %65
  %67 = getelementptr inbounds nuw %struct.topoinfo_bblock, ptr %66, i32 0, i32 2
  %68 = load ptr, ptr %67, align 8
  %69 = call i64 @strlen(ptr noundef %68) #9
  %70 = trunc i64 %69 to i32
  %71 = add i32 %70, 1
  store i32 %71, ptr %10, align 4
  br label %72

72:                                               ; preds = %60, %50
  %73 = load ptr, ptr %9, align 8
  %74 = getelementptr inbounds nuw %struct.topoinfo_block, ptr %73, i32 0, i32 1
  %75 = load ptr, ptr %74, align 8
  %76 = load i32, ptr %8, align 4
  %77 = sext i32 %76 to i64
  %78 = getelementptr inbounds %struct.topoinfo_bblock, ptr %75, i64 %77
  %79 = getelementptr inbounds nuw %struct.topoinfo_bblock, ptr %78, i32 0, i32 2
  %80 = load ptr, ptr %79, align 8
  %81 = load i32, ptr %10, align 4
  %82 = load ptr, ptr %6, align 8
  call void @slurm_packmem(ptr noundef %80, i32 noundef %81, ptr noundef %82)
  call void @llvm.lifetime.end.p0(i64 4, ptr %10) #8
  br label %83

83:                                               ; preds = %72
  br label %84

84:                                               ; preds = %83
  br label %85

85:                                               ; preds = %84
  call void @llvm.lifetime.start.p0(i64 4, ptr %11) #8
  store i32 0, ptr %11, align 4
  %86 = load ptr, ptr %9, align 8
  %87 = getelementptr inbounds nuw %struct.topoinfo_block, ptr %86, i32 0, i32 1
  %88 = load ptr, ptr %87, align 8
  %89 = load i32, ptr %8, align 4
  %90 = sext i32 %89 to i64
  %91 = getelementptr inbounds %struct.topoinfo_bblock, ptr %88, i64 %90
  %92 = getelementptr inbounds nuw %struct.topoinfo_bblock, ptr %91, i32 0, i32 3
  %93 = load ptr, ptr %92, align 8
  %94 = icmp ne ptr %93, null
  br i1 %94, label %95, label %107

95:                                               ; preds = %85
  %96 = load ptr, ptr %9, align 8
  %97 = getelementptr inbounds nuw %struct.topoinfo_block, ptr %96, i32 0, i32 1
  %98 = load ptr, ptr %97, align 8
  %99 = load i32, ptr %8, align 4
  %100 = sext i32 %99 to i64
  %101 = getelementptr inbounds %struct.topoinfo_bblock, ptr %98, i64 %100
  %102 = getelementptr inbounds nuw %struct.topoinfo_bblock, ptr %101, i32 0, i32 3
  %103 = load ptr, ptr %102, align 8
  %104 = call i64 @strlen(ptr noundef %103) #9
  %105 = trunc i64 %104 to i32
  %106 = add i32 %105, 1
  store i32 %106, ptr %11, align 4
  br label %107

107:                                              ; preds = %95, %85
  %108 = load ptr, ptr %9, align 8
  %109 = getelementptr inbounds nuw %struct.topoinfo_block, ptr %108, i32 0, i32 1
  %110 = load ptr, ptr %109, align 8
  %111 = load i32, ptr %8, align 4
  %112 = sext i32 %111 to i64
  %113 = getelementptr inbounds %struct.topoinfo_bblock, ptr %110, i64 %112
  %114 = getelementptr inbounds nuw %struct.topoinfo_bblock, ptr %113, i32 0, i32 3
  %115 = load ptr, ptr %114, align 8
  %116 = load i32, ptr %11, align 4
  %117 = load ptr, ptr %6, align 8
  call void @slurm_packmem(ptr noundef %115, i32 noundef %116, ptr noundef %117)
  call void @llvm.lifetime.end.p0(i64 4, ptr %11) #8
  br label %118

118:                                              ; preds = %107
  br label %119

119:                                              ; preds = %118
  %120 = load ptr, ptr %9, align 8
  %121 = getelementptr inbounds nuw %struct.topoinfo_block, ptr %120, i32 0, i32 1
  %122 = load ptr, ptr %121, align 8
  %123 = load i32, ptr %8, align 4
  %124 = sext i32 %123 to i64
  %125 = getelementptr inbounds %struct.topoinfo_bblock, ptr %122, i64 %124
  %126 = getelementptr inbounds nuw %struct.topoinfo_bblock, ptr %125, i32 0, i32 4
  %127 = load i32, ptr %126, align 8
  %128 = load ptr, ptr %6, align 8
  call void @slurm_pack32(i32 noundef %127, ptr noundef %128)
  br label %129

129:                                              ; preds = %119
  %130 = load i32, ptr %8, align 4
  %131 = add nsw i32 %130, 1
  store i32 %131, ptr %8, align 4
  br label %24, !llvm.loop !17

132:                                              ; preds = %24
  br label %234

133:                                              ; preds = %3
  %134 = load i16, ptr %7, align 2
  %135 = zext i16 %134 to i32
  %136 = icmp sge i32 %135, 10240
  br i1 %136, label %137, label %232

137:                                              ; preds = %133
  %138 = load ptr, ptr %9, align 8
  %139 = getelementptr inbounds nuw %struct.topoinfo_block, ptr %138, i32 0, i32 0
  %140 = load i32, ptr %139, align 8
  %141 = load ptr, ptr %6, align 8
  call void @slurm_pack32(i32 noundef %140, ptr noundef %141)
  store i32 0, ptr %8, align 4
  br label %142

142:                                              ; preds = %228, %137
  %143 = load i32, ptr %8, align 4
  %144 = load ptr, ptr %9, align 8
  %145 = getelementptr inbounds nuw %struct.topoinfo_block, ptr %144, i32 0, i32 0
  %146 = load i32, ptr %145, align 8
  %147 = icmp ult i32 %143, %146
  br i1 %147, label %148, label %231

148:                                              ; preds = %142
  %149 = load ptr, ptr %9, align 8
  %150 = getelementptr inbounds nuw %struct.topoinfo_block, ptr %149, i32 0, i32 1
  %151 = load ptr, ptr %150, align 8
  %152 = load i32, ptr %8, align 4
  %153 = sext i32 %152 to i64
  %154 = getelementptr inbounds %struct.topoinfo_bblock, ptr %151, i64 %153
  %155 = getelementptr inbounds nuw %struct.topoinfo_bblock, ptr %154, i32 0, i32 1
  %156 = load i16, ptr %155, align 2
  %157 = load ptr, ptr %6, align 8
  call void @slurm_pack16(i16 noundef zeroext %156, ptr noundef %157)
  br label %158

158:                                              ; preds = %148
  call void @llvm.lifetime.start.p0(i64 4, ptr %12) #8
  store i32 0, ptr %12, align 4
  %159 = load ptr, ptr %9, align 8
  %160 = getelementptr inbounds nuw %struct.topoinfo_block, ptr %159, i32 0, i32 1
  %161 = load ptr, ptr %160, align 8
  %162 = load i32, ptr %8, align 4
  %163 = sext i32 %162 to i64
  %164 = getelementptr inbounds %struct.topoinfo_bblock, ptr %161, i64 %163
  %165 = getelementptr inbounds nuw %struct.topoinfo_bblock, ptr %164, i32 0, i32 2
  %166 = load ptr, ptr %165, align 8
  %167 = icmp ne ptr %166, null
  br i1 %167, label %168, label %180

168:                                              ; preds = %158
  %169 = load ptr, ptr %9, align 8
  %170 = getelementptr inbounds nuw %struct.topoinfo_block, ptr %169, i32 0, i32 1
  %171 = load ptr, ptr %170, align 8
  %172 = load i32, ptr %8, align 4
  %173 = sext i32 %172 to i64
  %174 = getelementptr inbounds %struct.topoinfo_bblock, ptr %171, i64 %173
  %175 = getelementptr inbounds nuw %struct.topoinfo_bblock, ptr %174, i32 0, i32 2
  %176 = load ptr, ptr %175, align 8
  %177 = call i64 @strlen(ptr noundef %176) #9
  %178 = trunc i64 %177 to i32
  %179 = add i32 %178, 1
  store i32 %179, ptr %12, align 4
  br label %180

180:                                              ; preds = %168, %158
  %181 = load ptr, ptr %9, align 8
  %182 = getelementptr inbounds nuw %struct.topoinfo_block, ptr %181, i32 0, i32 1
  %183 = load ptr, ptr %182, align 8
  %184 = load i32, ptr %8, align 4
  %185 = sext i32 %184 to i64
  %186 = getelementptr inbounds %struct.topoinfo_bblock, ptr %183, i64 %185
  %187 = getelementptr inbounds nuw %struct.topoinfo_bblock, ptr %186, i32 0, i32 2
  %188 = load ptr, ptr %187, align 8
  %189 = load i32, ptr %12, align 4
  %190 = load ptr, ptr %6, align 8
  call void @slurm_packmem(ptr noundef %188, i32 noundef %189, ptr noundef %190)
  call void @llvm.lifetime.end.p0(i64 4, ptr %12) #8
  br label %191

191:                                              ; preds = %180
  br label %192

192:                                              ; preds = %191
  br label %193

193:                                              ; preds = %192
  call void @llvm.lifetime.start.p0(i64 4, ptr %13) #8
  store i32 0, ptr %13, align 4
  %194 = load ptr, ptr %9, align 8
  %195 = getelementptr inbounds nuw %struct.topoinfo_block, ptr %194, i32 0, i32 1
  %196 = load ptr, ptr %195, align 8
  %197 = load i32, ptr %8, align 4
  %198 = sext i32 %197 to i64
  %199 = getelementptr inbounds %struct.topoinfo_bblock, ptr %196, i64 %198
  %200 = getelementptr inbounds nuw %struct.topoinfo_bblock, ptr %199, i32 0, i32 3
  %201 = load ptr, ptr %200, align 8
  %202 = icmp ne ptr %201, null
  br i1 %202, label %203, label %215

203:                                              ; preds = %193
  %204 = load ptr, ptr %9, align 8
  %205 = getelementptr inbounds nuw %struct.topoinfo_block, ptr %204, i32 0, i32 1
  %206 = load ptr, ptr %205, align 8
  %207 = load i32, ptr %8, align 4
  %208 = sext i32 %207 to i64
  %209 = getelementptr inbounds %struct.topoinfo_bblock, ptr %206, i64 %208
  %210 = getelementptr inbounds nuw %struct.topoinfo_bblock, ptr %209, i32 0, i32 3
  %211 = load ptr, ptr %210, align 8
  %212 = call i64 @strlen(ptr noundef %211) #9
  %213 = trunc i64 %212 to i32
  %214 = add i32 %213, 1
  store i32 %214, ptr %13, align 4
  br label %215

215:                                              ; preds = %203, %193
  %216 = load ptr, ptr %9, align 8
  %217 = getelementptr inbounds nuw %struct.topoinfo_block, ptr %216, i32 0, i32 1
  %218 = load ptr, ptr %217, align 8
  %219 = load i32, ptr %8, align 4
  %220 = sext i32 %219 to i64
  %221 = getelementptr inbounds %struct.topoinfo_bblock, ptr %218, i64 %220
  %222 = getelementptr inbounds nuw %struct.topoinfo_bblock, ptr %221, i32 0, i32 3
  %223 = load ptr, ptr %222, align 8
  %224 = load i32, ptr %13, align 4
  %225 = load ptr, ptr %6, align 8
  call void @slurm_packmem(ptr noundef %223, i32 noundef %224, ptr noundef %225)
  call void @llvm.lifetime.end.p0(i64 4, ptr %13) #8
  br label %226

226:                                              ; preds = %215
  br label %227

227:                                              ; preds = %226
  br label %228

228:                                              ; preds = %227
  %229 = load i32, ptr %8, align 4
  %230 = add nsw i32 %229, 1
  store i32 %230, ptr %8, align 4
  br label %142, !llvm.loop !18

231:                                              ; preds = %142
  br label %233

232:                                              ; preds = %133
  store i32 -1, ptr %4, align 4
  store i32 1, ptr %14, align 4
  br label %235

233:                                              ; preds = %231
  br label %234

234:                                              ; preds = %233, %132
  store i32 0, ptr %4, align 4
  store i32 1, ptr %14, align 4
  br label %235

235:                                              ; preds = %234, %232
  call void @llvm.lifetime.end.p0(i64 8, ptr %9) #8
  call void @llvm.lifetime.end.p0(i64 4, ptr %8) #8
  %236 = load i32, ptr %4, align 4
  ret i32 %236
}