; Function Attrs: nounwind uwtable
define dso_local range(i32 -1, 1) i32 @topology_p_topology_pack(ptr noundef readonly captures(none) %0, ptr noundef %1, i16 noundef zeroext %2) local_unnamed_addr #0 {
  %4 = icmp ugt i16 %2, 10751
  br i1 %4, label %5, label %39

5:                                                ; preds = %3
  %6 = load i32, ptr %0, align 8
  tail call void @slurm_pack32(i32 noundef %6, ptr noundef %1) #9
  %7 = load i32, ptr %0, align 8
  %.not75 = icmp eq i32 %7, 0
  br i1 %.not75, label %.loopexit, label %.lr.ph73

.lr.ph73:                                         ; preds = %5
  %8 = getelementptr inbounds nuw i8, ptr %0, i64 8
  br label %9

9:                                                ; preds = %.lr.ph73, %32
  %indvars.iv78 = phi i64 [ 0, %.lr.ph73 ], [ %indvars.iv.next79, %32 ]
  %10 = load ptr, ptr %8, align 8
  %11 = getelementptr inbounds nuw %struct.topoinfo_bblock, ptr %10, i64 %indvars.iv78
  %12 = load i8, ptr %11, align 8, !range !15, !noundef !16
  %13 = trunc nuw i8 %12 to i1
  tail call void @slurm_packbool(i1 noundef zeroext %13, ptr noundef %1) #9
  %14 = load ptr, ptr %8, align 8
  %15 = getelementptr inbounds nuw %struct.topoinfo_bblock, ptr %14, i64 %indvars.iv78, i32 1
  %16 = load i16, ptr %15, align 2
  tail call void @slurm_pack16(i16 noundef zeroext %16, ptr noundef %1) #9
  %17 = load ptr, ptr %8, align 8
  %18 = getelementptr inbounds nuw %struct.topoinfo_bblock, ptr %17, i64 %indvars.iv78, i32 2
  %19 = load ptr, ptr %18, align 8
  %.not68 = icmp eq ptr %19, null
  br i1 %.not68, label %24, label %20

20:                                               ; preds = %9
  %21 = tail call i64 @strlen(ptr noundef nonnull dereferenceable(1) %19) #10
  %22 = trunc i64 %21 to i32
  %23 = add i32 %22, 1
  br label %24

24:                                               ; preds = %20, %9
  %.059 = phi i32 [ %23, %20 ], [ 0, %9 ]
  tail call void @slurm_packmem(ptr noundef %19, i32 noundef %.059, ptr noundef %1) #9
  %25 = load ptr, ptr %8, align 8
  %26 = getelementptr inbounds nuw %struct.topoinfo_bblock, ptr %25, i64 %indvars.iv78, i32 3
  %27 = load ptr, ptr %26, align 8
  %.not69 = icmp eq ptr %27, null
  br i1 %.not69, label %32, label %28

28:                                               ; preds = %24
  %29 = tail call i64 @strlen(ptr noundef nonnull dereferenceable(1) %27) #10
  %30 = trunc i64 %29 to i32
  %31 = add i32 %30, 1
  br label %32

32:                                               ; preds = %28, %24
  %.058 = phi i32 [ %31, %28 ], [ 0, %24 ]
  tail call void @slurm_packmem(ptr noundef %27, i32 noundef %.058, ptr noundef %1) #9
  %33 = load ptr, ptr %8, align 8
  %34 = getelementptr inbounds nuw %struct.topoinfo_bblock, ptr %33, i64 %indvars.iv78, i32 4
  %35 = load i32, ptr %34, align 8
  tail call void @slurm_pack32(i32 noundef %35, ptr noundef %1) #9
  %indvars.iv.next79 = add nuw nsw i64 %indvars.iv78, 1
  %36 = load i32, ptr %0, align 8
  %37 = zext i32 %36 to i64
  %38 = icmp samesign ult i64 %indvars.iv.next79, %37
  br i1 %38, label %9, label %.loopexit, !llvm.loop !17

39:                                               ; preds = %3
  %40 = icmp samesign ugt i16 %2, 10239
  br i1 %40, label %41, label %.loopexit

41:                                               ; preds = %39
  %42 = load i32, ptr %0, align 8
  tail call void @slurm_pack32(i32 noundef %42, ptr noundef %1) #9
  %43 = load i32, ptr %0, align 8
  %.not74 = icmp eq i32 %43, 0
  br i1 %.not74, label %.loopexit, label %.lr.ph

.lr.ph:                                           ; preds = %41
  %44 = getelementptr inbounds nuw i8, ptr %0, i64 8
  br label %45

45:                                               ; preds = %.lr.ph, %64
  %indvars.iv = phi i64 [ 0, %.lr.ph ], [ %indvars.iv.next, %64 ]
  %46 = load ptr, ptr %44, align 8
  %47 = getelementptr inbounds nuw %struct.topoinfo_bblock, ptr %46, i64 %indvars.iv, i32 1
  %48 = load i16, ptr %47, align 2
  tail call void @slurm_pack16(i16 noundef zeroext %48, ptr noundef %1) #9
  %49 = load ptr, ptr %44, align 8
  %50 = getelementptr inbounds nuw %struct.topoinfo_bblock, ptr %49, i64 %indvars.iv, i32 2
  %51 = load ptr, ptr %50, align 8
  %.not = icmp eq ptr %51, null
  br i1 %.not, label %56, label %52

52:                                               ; preds = %45
  %53 = tail call i64 @strlen(ptr noundef nonnull dereferenceable(1) %51) #10
  %54 = trunc i64 %53 to i32
  %55 = add i32 %54, 1
  br label %56

56:                                               ; preds = %52, %45
  %.057 = phi i32 [ %55, %52 ], [ 0, %45 ]
  tail call void @slurm_packmem(ptr noundef %51, i32 noundef %.057, ptr noundef %1) #9
  %57 = load ptr, ptr %44, align 8
  %58 = getelementptr inbounds nuw %struct.topoinfo_bblock, ptr %57, i64 %indvars.iv, i32 3
  %59 = load ptr, ptr %58, align 8
  %.not67 = icmp eq ptr %59, null
  br i1 %.not67, label %64, label %60

60:                                               ; preds = %56
  %61 = tail call i64 @strlen(ptr noundef nonnull dereferenceable(1) %59) #10
  %62 = trunc i64 %61 to i32
  %63 = add i32 %62, 1
  br label %64

64:                                               ; preds = %60, %56
  %.0 = phi i32 [ %63, %60 ], [ 0, %56 ]
  tail call void @slurm_packmem(ptr noundef %59, i32 noundef %.0, ptr noundef %1) #9
  %indvars.iv.next = add nuw nsw i64 %indvars.iv, 1
  %65 = load i32, ptr %0, align 8
  %66 = zext i32 %65 to i64
  %67 = icmp samesign ult i64 %indvars.iv.next, %66
  br i1 %67, label %45, label %.loopexit, !llvm.loop !18

.loopexit:                                        ; preds = %64, %32, %41, %5, %39
  %.060 = phi i32 [ -1, %39 ], [ 0, %5 ], [ 0, %41 ], [ 0, %32 ], [ 0, %64 ]
  ret i32 %.060
}